target datalayout = "e-m:e-p270:32:32-p271:32:32-p272:64:64-i64:64-i128:128-f80:128-n8:16:32:64-S128"
target triple = "x86_64-pc-linux-gnu"

%struct.opj_j2k = type { i32, %union.anon, ptr, ptr, %struct.opj_cp, ptr, ptr, ptr, i32, ptr, ptr, i32, i32, i32 }
%union.anon = type { %struct.opj_j2k_dec }
%struct.opj_j2k_dec = type { i32, ptr, ptr, i32, i32, i32, i32, i32, i32, i32, i64, i32, i32, ptr, %struct.opj_j2k_tlm_info, i32, i32, ptr, i8 }
%struct.opj_j2k_tlm_info = type { i32, ptr, i32 }
%struct.opj_cp = type { i16, i32, i32, i32, i32, ptr, i32, i32, i32, ptr, ptr, i32, i32, ptr, ptr, ptr, i32, i32, i32, ptr, %union.anon.0, i32, i8 }
%union.anon.0 = type { %struct.opj_encoding_param }
%struct.opj_encoding_param = type { i32, i32, ptr, i8, i32, i8 }
%struct.opj_decoding_param = type { i32, i32 }
%struct.opj_poc = type { i32, i32, i32, i32, i32, i32, i32, i32, i32, i32, [5 x i8], i32, i32, i32, i32, i32, i32, i32, i32, i32, i32, i32, i32, i32, i32, i32, i32, i32, i32, i32, i32, i32, i32, i32, i32, i32 }
%struct.opj_image = type { i32, i32, i32, i32, i32, i32, ptr, ptr, i32 }
%struct.opj_tcp = type { i32, i32, i32, i32, i32, [100 x float], i32, [32 x %struct.opj_poc], i32, ptr, ptr, ptr, i32, i32, [100 x float], ptr, i32, i32, ptr, i32, ptr, ptr, ptr, ptr, i32, i32, ptr, i32, i32, i8 }
%struct.opj_tccp = type { i32, i32, i32, i32, i32, i32, i32, [97 x %struct.opj_stepsize], i32, i32, [33 x i32], [33 x i32], i32 }
%struct.opj_stepsize = type { i32, i32 }

@.str.188 = private unnamed_addr constant [26 x i8] c"Error reading COD marker\0A\00", align 1
@.str.189 = private unnamed_addr constant [34 x i8] c"Unknown Scod value in COD marker\0A\00", align 1
@.str.190 = private unnamed_addr constant [41 x i8] c"Unknown progression order in COD marker\0A\00", align 1
@.str.191 = private unnamed_addr constant [68 x i8] c"Invalid number of layers in COD marker : %d not in range [1-65535]\0A\00", align 1
@.str.192 = private unnamed_addr constant [43 x i8] c"Invalid multiple component transformation\0A\00", align 1

; Function Attrs: nounwind uwtable
define internal i32 @opj_j2k_read_cod(ptr noundef %0, ptr noundef %1, i32 noundef %2, ptr noundef %3) #0 {
  %5 = alloca i32, align 4
  %6 = alloca ptr, align 8
  %7 = alloca ptr, align 8
  %8 = alloca i32, align 4
  %9 = alloca ptr, align 8
  %10 = alloca i32, align 4
  %11 = alloca i32, align 4
  %12 = alloca ptr, align 8
  %13 = alloca ptr, align 8
  %14 = alloca ptr, align 8
  %15 = alloca i32, align 4
  store ptr %0, ptr %6, align 8, !tbaa !14
  store ptr %1, ptr %7, align 8, !tbaa !44
  store i32 %2, ptr %8, align 4, !tbaa !3
  store ptr %3, ptr %9, align 8, !tbaa !48
  call void @llvm.lifetime.start.p0(i64 4, ptr %10) #10
  call void @llvm.lifetime.start.p0(i64 4, ptr %11) #10
  call void @llvm.lifetime.start.p0(i64 8, ptr %12) #10
  store ptr null, ptr %12, align 8, !tbaa !50
  call void @llvm.lifetime.start.p0(i64 8, ptr %13) #10
  store ptr null, ptr %13, align 8, !tbaa !103
  call void @llvm.lifetime.start.p0(i64 8, ptr %14) #10
  store ptr null, ptr %14, align 8, !tbaa !47
  %16 = load ptr, ptr %6, align 8, !tbaa !14
  %17 = getelementptr inbounds nuw %struct.opj_j2k, ptr %16, i32 0, i32 2
  %18 = load ptr, ptr %17, align 8, !tbaa !42
  store ptr %18, ptr %14, align 8, !tbaa !47
  %19 = load ptr, ptr %6, align 8, !tbaa !14
  %20 = getelementptr inbounds nuw %struct.opj_j2k, ptr %19, i32 0, i32 4
  store ptr %20, ptr %12, align 8, !tbaa !50
  %21 = load ptr, ptr %6, align 8, !tbaa !14
  %22 = getelementptr inbounds nuw %struct.opj_j2k, ptr %21, i32 0, i32 1
  %23 = getelementptr inbounds nuw %struct.opj_j2k_dec, ptr %22, i32 0, i32 0
  %24 = load i32, ptr %23, align 8, !tbaa !20
  %25 = icmp eq i32 %24, 16
  br i1 %25, label %26, label %35

26:                                               ; preds = %4
  %27 = load ptr, ptr %12, align 8, !tbaa !50
  %28 = getelementptr inbounds nuw %struct.opj_cp, ptr %27, i32 0, i32 19
  %29 = load ptr, ptr %28, align 8, !tbaa !102
  %30 = load ptr, ptr %6, align 8, !tbaa !14
  %31 = getelementptr inbounds nuw %struct.opj_j2k, ptr %30, i32 0, i32 8
  %32 = load i32, ptr %31, align 8, !tbaa !248
  %33 = zext i32 %32 to i64
  %34 = getelementptr inbounds nuw %struct.opj_tcp, ptr %29, i64 %33
  br label %40

35:                                               ; preds = %4
  %36 = load ptr, ptr %6, align 8, !tbaa !14
  %37 = getelementptr inbounds nuw %struct.opj_j2k, ptr %36, i32 0, i32 1
  %38 = getelementptr inbounds nuw %struct.opj_j2k_dec, ptr %37, i32 0, i32 1
  %39 = load ptr, ptr %38, align 8, !tbaa !20
  br label %40

40:                                               ; preds = %35, %26
  %41 = phi ptr [ %34, %26 ], [ %39, %35 ]
  store ptr %41, ptr %13, align 8, !tbaa !103
  %42 = load ptr, ptr %13, align 8, !tbaa !103
  %43 = getelementptr inbounds nuw %struct.opj_tcp, ptr %42, i32 0, i32 29
  %44 = load i8, ptr %43, align 8
  %45 = and i8 %44, -2
  %46 = or i8 %45, 1
  store i8 %46, ptr %43, align 8
  %47 = load i32, ptr %8, align 4, !tbaa !3
  %48 = icmp ult i32 %47, 5
  br i1 %48, label %49, label %52

49:                                               ; preds = %40
  %50 = load ptr, ptr %9, align 8, !tbaa !48
  %51 = call i32 (ptr, i32, ptr, ...) @opj_event_msg(ptr noundef %50, i32 noundef 1, ptr noundef @.str.188)
  store i32 0, ptr %5, align 4
  store i32 1, ptr %15, align 4
  br label %176

52:                                               ; preds = %40
  %53 = load ptr, ptr %7, align 8, !tbaa !44
  %54 = load ptr, ptr %13, align 8, !tbaa !103
  %55 = getelementptr inbounds nuw %struct.opj_tcp, ptr %54, i32 0, i32 0
  call void @opj_read_bytes_LE(ptr noundef %53, ptr noundef %55, i32 noundef 1)
  %56 = load ptr, ptr %7, align 8, !tbaa !44
  %57 = getelementptr inbounds nuw i8, ptr %56, i32 1
  store ptr %57, ptr %7, align 8, !tbaa !44
  %58 = load ptr, ptr %13, align 8, !tbaa !103
  %59 = getelementptr inbounds nuw %struct.opj_tcp, ptr %58, i32 0, i32 0
  %60 = load i32, ptr %59, align 8, !tbaa !113
  %61 = and i32 %60, -8
  %62 = icmp ne i32 %61, 0
  br i1 %62, label %63, label %66

63:                                               ; preds = %52
  %64 = load ptr, ptr %9, align 8, !tbaa !48
  %65 = call i32 (ptr, i32, ptr, ...) @opj_event_msg(ptr noundef %64, i32 noundef 1, ptr noundef @.str.189)
  store i32 0, ptr %5, align 4
  store i32 1, ptr %15, align 4
  br label %176

66:                                               ; preds = %52
  %67 = load ptr, ptr %7, align 8, !tbaa !44
  call void @opj_read_bytes_LE(ptr noundef %67, ptr noundef %11, i32 noundef 1)
  %68 = load ptr, ptr %7, align 8, !tbaa !44
  %69 = getelementptr inbounds nuw i8, ptr %68, i32 1
  store ptr %69, ptr %7, align 8, !tbaa !44
  %70 = load i32, ptr %11, align 4, !tbaa !3
  %71 = load ptr, ptr %13, align 8, !tbaa !103
  %72 = getelementptr inbounds nuw %struct.opj_tcp, ptr %71, i32 0, i32 1
  store i32 %70, ptr %72, align 4, !tbaa !115
  %73 = load ptr, ptr %13, align 8, !tbaa !103
  %74 = getelementptr inbounds nuw %struct.opj_tcp, ptr %73, i32 0, i32 1
  %75 = load i32, ptr %74, align 4, !tbaa !115
  %76 = icmp sgt i32 %75, 4
  br i1 %76, label %77, label %82

77:                                               ; preds = %66
  %78 = load ptr, ptr %9, align 8, !tbaa !48
  %79 = call i32 (ptr, i32, ptr, ...) @opj_event_msg(ptr noundef %78, i32 noundef 1, ptr noundef @.str.190)
  %80 = load ptr, ptr %13, align 8, !tbaa !103
  %81 = getelementptr inbounds nuw %struct.opj_tcp, ptr %80, i32 0, i32 1
  store i32 -1, ptr %81, align 4, !tbaa !115
  br label %82

82:                                               ; preds = %77, %66
  %83 = load ptr, ptr %7, align 8, !tbaa !44
  %84 = load ptr, ptr %13, align 8, !tbaa !103
  %85 = getelementptr inbounds nuw %struct.opj_tcp, ptr %84, i32 0, i32 2
  call void @opj_read_bytes_LE(ptr noundef %83, ptr noundef %85, i32 noundef 2)
  %86 = load ptr, ptr %7, align 8, !tbaa !44
  %87 = getelementptr inbounds i8, ptr %86, i64 2
  store ptr %87, ptr %7, align 8, !tbaa !44
  %88 = load ptr, ptr %13, align 8, !tbaa !103
  %89 = getelementptr inbounds nuw %struct.opj_tcp, ptr %88, i32 0, i32 2
  %90 = load i32, ptr %89, align 8, !tbaa !104
  %91 = icmp ult i32 %90, 1
  br i1 %91, label %97, label %92

92:                                               ; preds = %82
  %93 = load ptr, ptr %13, align 8, !tbaa !103
  %94 = getelementptr inbounds nuw %struct.opj_tcp, ptr %93, i32 0, i32 2
  %95 = load i32, ptr %94, align 8, !tbaa !104
  %96 = icmp ugt i32 %95, 65535
  br i1 %96, label %97, label %103

97:                                               ; preds = %92, %82
  %98 = load ptr, ptr %9, align 8, !tbaa !48
  %99 = load ptr, ptr %13, align 8, !tbaa !103
  %100 = getelementptr inbounds nuw %struct.opj_tcp, ptr %99, i32 0, i32 2
  %101 = load i32, ptr %100, align 8, !tbaa !104
  %102 = call i32 (ptr, i32, ptr, ...) @opj_event_msg(ptr noundef %98, i32 noundef 1, ptr noundef @.str.191, i32 noundef %101)
  store i32 0, ptr %5, align 4
  store i32 1, ptr %15, align 4
  br label %176

103:                                              ; preds = %92
  %104 = load ptr, ptr %12, align 8, !tbaa !50
  %105 = getelementptr inbounds nuw %struct.opj_cp, ptr %104, i32 0, i32 20
  %106 = getelementptr inbounds nuw %struct.opj_decoding_param, ptr %105, i32 0, i32 1
  %107 = load i32, ptr %106, align 4, !tbaa !20
  %108 = icmp ne i32 %107, 0
  br i1 %108, label %109, label %116

109:                                              ; preds = %103
  %110 = load ptr, ptr %12, align 8, !tbaa !50
  %111 = getelementptr inbounds nuw %struct.opj_cp, ptr %110, i32 0, i32 20
  %112 = getelementptr inbounds nuw %struct.opj_decoding_param, ptr %111, i32 0, i32 1
  %113 = load i32, ptr %112, align 4, !tbaa !20
  %114 = load ptr, ptr %13, align 8, !tbaa !103
  %115 = getelementptr inbounds nuw %struct.opj_tcp, ptr %114, i32 0, i32 3
  store i32 %113, ptr %115, align 4, !tbaa !437
  br label %122

116:                                              ; preds = %103
  %117 = load ptr, ptr %13, align 8, !tbaa !103
  %118 = getelementptr inbounds nuw %struct.opj_tcp, ptr %117, i32 0, i32 2
  %119 = load i32, ptr %118, align 8, !tbaa !104
  %120 = load ptr, ptr %13, align 8, !tbaa !103
  %121 = getelementptr inbounds nuw %struct.opj_tcp, ptr %120, i32 0, i32 3
  store i32 %119, ptr %121, align 4, !tbaa !437
  br label %122

122:                                              ; preds = %116, %109
  %123 = load ptr, ptr %7, align 8, !tbaa !44
  %124 = load ptr, ptr %13, align 8, !tbaa !103
  %125 = getelementptr inbounds nuw %struct.opj_tcp, ptr %124, i32 0, i32 4
  call void @opj_read_bytes_LE(ptr noundef %123, ptr noundef %125, i32 noundef 1)
  %126 = load ptr, ptr %7, align 8, !tbaa !44
  %127 = getelementptr inbounds nuw i8, ptr %126, i32 1
  store ptr %127, ptr %7, align 8, !tbaa !44
  %128 = load ptr, ptr %13, align 8, !tbaa !103
  %129 = getelementptr inbounds nuw %struct.opj_tcp, ptr %128, i32 0, i32 4
  %130 = load i32, ptr %129, align 8, !tbaa !117
  %131 = icmp ugt i32 %130, 1
  br i1 %131, label %132, label %135

132:                                              ; preds = %122
  %133 = load ptr, ptr %9, align 8, !tbaa !48
  %134 = call i32 (ptr, i32, ptr, ...) @opj_event_msg(ptr noundef %133, i32 noundef 1, ptr noundef @.str.192)
  store i32 0, ptr %5, align 4
  store i32 1, ptr %15, align 4
  br label %176

135:                                              ; preds = %122
  %136 = load i32, ptr %8, align 4, !tbaa !3
  %137 = sub i32 %136, 5
  store i32 %137, ptr %8, align 4, !tbaa !3
  store i32 0, ptr %10, align 4, !tbaa !3
  br label %138

138:                                              ; preds = %156, %135
  %139 = load i32, ptr %10, align 4, !tbaa !3
  %140 = load ptr, ptr %14, align 8, !tbaa !47
  %141 = getelementptr inbounds nuw %struct.opj_image, ptr %140, i32 0, i32 4
  %142 = load i32, ptr %141, align 8, !tbaa !60
  %143 = icmp ult i32 %139, %142
  br i1 %143, label %144, label %159

144:                                              ; preds = %138
  %145 = load ptr, ptr %13, align 8, !tbaa !103
  %146 = getelementptr inbounds nuw %struct.opj_tcp, ptr %145, i32 0, i32 0
  %147 = load i32, ptr %146, align 8, !tbaa !113
  %148 = and i32 %147, 1
  %149 = load ptr, ptr %13, align 8, !tbaa !103
  %150 = getelementptr inbounds nuw %struct.opj_tcp, ptr %149, i32 0, i32 15
  %151 = load ptr, ptr %150, align 8, !tbaa !131
  %152 = load i32, ptr %10, align 4, !tbaa !3
  %153 = zext i32 %152 to i64
  %154 = getelementptr inbounds nuw %struct.opj_tccp, ptr %151, i64 %153
  %155 = getelementptr inbounds nuw %struct.opj_tccp, ptr %154, i32 0, i32 0
  store i32 %148, ptr %155, align 4, !tbaa !145
  br label %156

156:                                              ; preds = %144
  %157 = load i32, ptr %10, align 4, !tbaa !3
  %158 = add i32 %157, 1
  store i32 %158, ptr %10, align 4, !tbaa !3
  br label %138, !llvm.loop !438

159:                                              ; preds = %138
  %160 = load ptr, ptr %6, align 8, !tbaa !14
  %161 = load ptr, ptr %7, align 8, !tbaa !44
  %162 = load ptr, ptr %9, align 8, !tbaa !48
  %163 = call i32 @opj_j2k_read_SPCod_SPCoc(ptr noundef %160, i32 noundef 0, ptr noundef %161, ptr noundef %8, ptr noundef %162)
  %164 = icmp ne i32 %163, 0
  br i1 %164, label %168, label %165

165:                                              ; preds = %159
  %166 = load ptr, ptr %9, align 8, !tbaa !48
  %167 = call i32 (ptr, i32, ptr, ...) @opj_event_msg(ptr noundef %166, i32 noundef 1, ptr noundef @.str.188)
  store i32 0, ptr %5, align 4
  store i32 1, ptr %15, align 4
  br label %176

168:                                              ; preds = %159
  %169 = load i32, ptr %8, align 4, !tbaa !3
  %170 = icmp ne i32 %169, 0
  br i1 %170, label %171, label %174

171:                                              ; preds = %168
  %172 = load ptr, ptr %9, align 8, !tbaa !48
  %173 = call i32 (ptr, i32, ptr, ...) @opj_event_msg(ptr noundef %172, i32 noundef 1, ptr noundef @.str.188)
  store i32 0, ptr %5, align 4
  store i32 1, ptr %15, align 4
  br label %176

174:                                              ; preds = %168
  %175 = load ptr, ptr %6, align 8, !tbaa !14
  call void @opj_j2k_copy_tile_component_parameters(ptr noundef %175)
  store i32 1, ptr %5, align 4
  store i32 1, ptr %15, align 4
  br label %176

176:                                              ; preds = %174, %171, %165, %132, %97, %63, %49
  call void @llvm.lifetime.end.p0(i64 8, ptr %14) #10
  call void @llvm.lifetime.end.p0(i64 8, ptr %13) #10
  call void @llvm.lifetime.end.p0(i64 8, ptr %12) #10
  call void @llvm.lifetime.end.p0(i64 4, ptr %11) #10
  call void @llvm.lifetime.end.p0(i64 4, ptr %10) #10
  %177 = load i32, ptr %5, align 4
  ret i32 %177
}