; Function Attrs: nounwind uwtable
define internal range(i32 0, 2) i32 @opj_j2k_read_cod(ptr noundef captures(none) %0, ptr noundef %1, i32 noundef %2, ptr noundef %3) #3 {
  %5 = alloca i32, align 4
  %6 = alloca i32, align 4
  store i32 %2, ptr %5, align 4, !tbaa !125
  call void @llvm.lifetime.start.p0(i64 4, ptr nonnull %6) #21
  %7 = getelementptr inbounds nuw i8, ptr %0, i64 136
  %8 = load ptr, ptr %7, align 8, !tbaa !47
  %9 = getelementptr inbounds nuw i8, ptr %0, i64 8
  %10 = load i32, ptr %9, align 8, !tbaa !12
  %11 = icmp eq i32 %10, 16
  br i1 %11, label %12, label %19

12:                                               ; preds = %4
  %13 = getelementptr inbounds nuw i8, ptr %0, i64 264
  %14 = load ptr, ptr %13, align 8, !tbaa !34
  %15 = getelementptr inbounds nuw i8, ptr %0, i64 336
  %16 = load i32, ptr %15, align 8, !tbaa !220
  %17 = zext i32 %16 to i64
  %18 = getelementptr inbounds nuw %struct.opj_tcp, ptr %14, i64 %17
  br label %22

19:                                               ; preds = %4
  %20 = getelementptr inbounds nuw i8, ptr %0, i64 16
  %21 = load ptr, ptr %20, align 8, !tbaa !12
  br label %22

22:                                               ; preds = %19, %12
  %23 = phi ptr [ %18, %12 ], [ %21, %19 ]
  %24 = getelementptr inbounds nuw i8, ptr %23, i64 5688
  %25 = load i8, ptr %24, align 8
  %26 = or i8 %25, 1
  store i8 %26, ptr %24, align 8
  %27 = icmp ult i32 %2, 5
  br i1 %27, label %28, label %30

28:                                               ; preds = %22
  %29 = tail call i32 (ptr, i32, ptr, ...) @opj_event_msg(ptr noundef %3, i32 noundef 1, ptr noundef nonnull @.str.188) #21
  br label %78

30:                                               ; preds = %22
  tail call void @opj_read_bytes_LE(ptr noundef %1, ptr noundef nonnull %23, i32 noundef 1) #21
  %31 = load i32, ptr %23, align 8, !tbaa !104
  %.not = icmp ult i32 %31, 8
  br i1 %.not, label %34, label %32

32:                                               ; preds = %30
  %33 = tail call i32 (ptr, i32, ptr, ...) @opj_event_msg(ptr noundef %3, i32 noundef 1, ptr noundef nonnull @.str.189) #21
  br label %78

34:                                               ; preds = %30
  %35 = getelementptr inbounds nuw i8, ptr %1, i64 1
  call void @opj_read_bytes_LE(ptr noundef nonnull %35, ptr noundef nonnull %6, i32 noundef 1) #21
  %36 = getelementptr inbounds nuw i8, ptr %1, i64 2
  %37 = load i32, ptr %6, align 4, !tbaa !125
  %38 = getelementptr inbounds nuw i8, ptr %23, i64 4
  store i32 %37, ptr %38, align 4, !tbaa !106
  %39 = icmp sgt i32 %37, 4
  br i1 %39, label %40, label %42

40:                                               ; preds = %34
  %41 = call i32 (ptr, i32, ptr, ...) @opj_event_msg(ptr noundef %3, i32 noundef 1, ptr noundef nonnull @.str.190) #21
  store i32 -1, ptr %38, align 4, !tbaa !106
  br label %42

42:                                               ; preds = %40, %34
  %43 = getelementptr inbounds nuw i8, ptr %23, i64 8
  call void @opj_read_bytes_LE(ptr noundef nonnull %36, ptr noundef nonnull %43, i32 noundef 2) #21
  %44 = load i32, ptr %43, align 8, !tbaa !95
  %45 = add i32 %44, -65536
  %or.cond = icmp ult i32 %45, -65535
  br i1 %or.cond, label %46, label %48

46:                                               ; preds = %42
  %47 = call i32 (ptr, i32, ptr, ...) @opj_event_msg(ptr noundef %3, i32 noundef 1, ptr noundef nonnull @.str.191, i32 noundef %44) #21
  br label %78

48:                                               ; preds = %42
  %49 = getelementptr inbounds nuw i8, ptr %1, i64 4
  %50 = getelementptr inbounds nuw i8, ptr %0, i64 276
  %51 = load i32, ptr %50, align 4, !tbaa !12
  %.not51 = icmp eq i32 %51, 0
  %spec.select = select i1 %.not51, i32 %44, i32 %51
  %52 = getelementptr inbounds nuw i8, ptr %23, i64 12
  store i32 %spec.select, ptr %52, align 4, !tbaa !408
  %53 = getelementptr inbounds nuw i8, ptr %23, i64 16
  call void @opj_read_bytes_LE(ptr noundef nonnull %49, ptr noundef nonnull %53, i32 noundef 1) #21
  %54 = getelementptr inbounds nuw i8, ptr %1, i64 5
  %55 = load i32, ptr %53, align 8, !tbaa !108
  %56 = icmp ugt i32 %55, 1
  br i1 %56, label %57, label %59

57:                                               ; preds = %48
  %58 = call i32 (ptr, i32, ptr, ...) @opj_event_msg(ptr noundef %3, i32 noundef 1, ptr noundef nonnull @.str.192) #21
  br label %78

59:                                               ; preds = %48
  %60 = load i32, ptr %5, align 4, !tbaa !125
  %61 = add i32 %60, -5
  store i32 %61, ptr %5, align 4, !tbaa !125
  %62 = getelementptr inbounds nuw i8, ptr %8, i64 16
  %63 = load i32, ptr %62, align 8, !tbaa !58
  %.not55 = icmp eq i32 %63, 0
  br i1 %.not55, label %._crit_edge, label %.lr.ph

.lr.ph:                                           ; preds = %59
  %64 = load i32, ptr %23, align 8, !tbaa !104
  %65 = and i32 %64, 1
  %66 = getelementptr inbounds nuw i8, ptr %23, i64 5600
  %67 = load ptr, ptr %66, align 8, !tbaa !120
  %wide.trip.count = zext i32 %63 to i64
  br label %68

68:                                               ; preds = %.lr.ph, %68
  %indvars.iv = phi i64 [ 0, %.lr.ph ], [ %indvars.iv.next, %68 ]
  %69 = getelementptr inbounds nuw %struct.opj_tccp, ptr %67, i64 %indvars.iv
  store i32 %65, ptr %69, align 4, !tbaa !131
  %indvars.iv.next = add nuw nsw i64 %indvars.iv, 1
  %exitcond.not = icmp eq i64 %indvars.iv.next, %wide.trip.count
  br i1 %exitcond.not, label %._crit_edge, label %68, !llvm.loop !409

._crit_edge:                                      ; preds = %68, %59
  %70 = call fastcc i32 @opj_j2k_read_SPCod_SPCoc(ptr noundef nonnull %0, i32 noundef 0, ptr noundef nonnull %54, ptr noundef %5, ptr noundef %3)
  %.not52 = icmp eq i32 %70, 0
  br i1 %.not52, label %71, label %73

71:                                               ; preds = %._crit_edge
  %72 = call i32 (ptr, i32, ptr, ...) @opj_event_msg(ptr noundef %3, i32 noundef 1, ptr noundef nonnull @.str.188) #21
  br label %78

73:                                               ; preds = %._crit_edge
  %74 = load i32, ptr %5, align 4, !tbaa !125
  %.not53 = icmp eq i32 %74, 0
  br i1 %.not53, label %77, label %75

75:                                               ; preds = %73
  %76 = call i32 (ptr, i32, ptr, ...) @opj_event_msg(ptr noundef %3, i32 noundef 1, ptr noundef nonnull @.str.188) #21
  br label %78

77:                                               ; preds = %73
  call fastcc void @opj_j2k_copy_tile_component_parameters(ptr noundef nonnull %0)
  br label %78

78:                                               ; preds = %77, %75, %71, %57, %46, %32, %28
  %.048 = phi i32 [ 0, %28 ], [ 0, %32 ], [ 0, %46 ], [ 0, %57 ], [ 0, %75 ], [ 1, %77 ], [ 0, %71 ]
  call void @llvm.lifetime.end.p0(i64 4, ptr nonnull %6) #21
  ret i32 %.048
}